; Function Attrs: nounwind sspstrong uwtable
define internal i32 @uffd_protect_section(ptr noundef readonly captures(none) %section, ptr noundef %opaque) #0 {
entry:
  %0 = load i128, ptr %section, align 16
  %cmp.i = icmp ult i128 %0, 18446744073709551616
  br i1 %cmp.i, label %int128_get64.exit, label %if.else.i

if.else.i:                                        ; preds = %entry
  tail call void @__assert_fail(ptr noundef nonnull @.str.29, ptr noundef nonnull @.str.30, i32 noundef 33, ptr noundef nonnull @__PRETTY_FUNCTION__.int128_get64) #19
  unreachable

int128_get64.exit:                                ; preds = %entry
  %coerce.sroa.0.0.extract.trunc = trunc nuw i128 %0 to i64
  %offset_within_region = getelementptr inbounds nuw i8, ptr %section, i64 32
  %1 = load i64, ptr %offset_within_region, align 16
  %mr = getelementptr inbounds nuw i8, ptr %section, i64 16
  %2 = load ptr, ptr %mr, align 16
  %ram_block = getelementptr inbounds nuw i8, ptr %2, i64 56
  %3 = load ptr, ptr %ram_block, align 8
  %4 = ptrtoint ptr %opaque to i64
  %conv = trunc i64 %4 to i32
  %host = getelementptr inbounds nuw i8, ptr %3, i64 24
  %5 = load ptr, ptr %host, align 8
  %add.ptr = getelementptr i8, ptr %5, i64 %1
  %call2 = tail call i32 @uffd_change_protection(i32 noundef %conv, ptr noundef %add.ptr, i64 noundef %coerce.sroa.0.0.extract.trunc, i1 noundef zeroext true, i1 noundef zeroext false) #18
  ret i32 %call2
}